target datalayout = "e-m:e-p270:32:32-p271:32:32-p272:64:64-i64:64-i128:128-f80:128-n8:16:32:64-S128"
target triple = "x86_64-pc-linux-gnu"

%struct.SnapshotData = type { i32, i32, i32, ptr, i32, ptr, i32, i8, i8, i8, i32, i32, ptr, i32, i32, %struct.pairingheap_node, i64 }
%struct.pairingheap_node = type { ptr, ptr, ptr }

@.str.2 = private unnamed_addr constant [12 x i8] c"snapbuild.c\00", align 1
@.str.9 = private unnamed_addr constant [51 x i8] c"cannot export a snapshot from within a transaction\00", align 1
@__func__.SnapBuildExportSnapshot = private unnamed_addr constant [24 x i8] c"SnapBuildExportSnapshot\00", align 1
@SavedResourceOwnerDuringExport = internal global ptr null, align 8
@.str.10 = private unnamed_addr constant [39 x i8] c"can only export one snapshot at a time\00", align 1
@CurrentResourceOwner = external global ptr, align 8
@ExportInProgress = internal global i8 0, align 1
@XactIsoLevel = external global i32, align 4
@XactReadOnly = external global i8, align 1
@.str.11 = private unnamed_addr constant [64 x i8] c"exported logical decoding snapshot: \22%s\22 with %u transaction ID\00", align 1
@.str.12 = private unnamed_addr constant [65 x i8] c"exported logical decoding snapshot: \22%s\22 with %u transaction IDs\00", align 1

; Function Attrs: nounwind uwtable
define dso_local ptr @SnapBuildExportSnapshot(ptr noundef %0) #0 {
  %2 = alloca ptr, align 8
  %3 = alloca ptr, align 8
  %4 = alloca ptr, align 8
  store ptr %0, ptr %2, align 8
  call void @llvm.lifetime.start.p0(i64 8, ptr %3) #9
  call void @llvm.lifetime.start.p0(i64 8, ptr %4) #9
  %5 = call zeroext i1 @IsTransactionOrTransactionBlock()
  br i1 %5, label %6, label %17

6:                                                ; preds = %1
  br label %7

7:                                                ; preds = %6
  br i1 true, label %8, label %10

8:                                                ; preds = %7
  %9 = call zeroext i1 @errstart_cold(i32 noundef 21, ptr noundef null) #10
  br i1 %9, label %12, label %14

10:                                               ; preds = %7
  %11 = call zeroext i1 @errstart(i32 noundef 21, ptr noundef null)
  br i1 %11, label %12, label %14

12:                                               ; preds = %10, %8
  %13 = call i32 (ptr, ...) @errmsg_internal(ptr noundef @.str.9)
  call void @errfinish(ptr noundef @.str.2, i32 noundef 545, ptr noundef @__func__.SnapBuildExportSnapshot)
  br label %14

14:                                               ; preds = %12, %10, %8
  unreachable

15:                                               ; No predecessors!
  br label %16

16:                                               ; preds = %15
  br label %17

17:                                               ; preds = %16, %1
  %18 = load ptr, ptr @SavedResourceOwnerDuringExport, align 8
  %19 = icmp ne ptr %18, null
  br i1 %19, label %20, label %31

20:                                               ; preds = %17
  br label %21

21:                                               ; preds = %20
  br i1 true, label %22, label %24

22:                                               ; preds = %21
  %23 = call zeroext i1 @errstart_cold(i32 noundef 21, ptr noundef null) #10
  br i1 %23, label %26, label %28

24:                                               ; preds = %21
  %25 = call zeroext i1 @errstart(i32 noundef 21, ptr noundef null)
  br i1 %25, label %26, label %28

26:                                               ; preds = %24, %22
  %27 = call i32 (ptr, ...) @errmsg_internal(ptr noundef @.str.10)
  call void @errfinish(ptr noundef @.str.2, i32 noundef 548, ptr noundef @__func__.SnapBuildExportSnapshot)
  br label %28

28:                                               ; preds = %26, %24, %22
  unreachable

29:                                               ; No predecessors!
  br label %30

30:                                               ; preds = %29
  br label %31

31:                                               ; preds = %30, %17
  %32 = load ptr, ptr @CurrentResourceOwner, align 8
  store ptr %32, ptr @SavedResourceOwnerDuringExport, align 8
  store i8 1, ptr @ExportInProgress, align 1
  call void @StartTransactionCommand()
  store i32 2, ptr @XactIsoLevel, align 4
  store i8 1, ptr @XactReadOnly, align 1
  %33 = load ptr, ptr %2, align 8
  %34 = call ptr @SnapBuildInitialSnapshot(ptr noundef %33)
  store ptr %34, ptr %3, align 8
  %35 = load ptr, ptr %3, align 8
  %36 = call ptr @ExportSnapshot(ptr noundef %35)
  store ptr %36, ptr %4, align 8
  br label %37

37:                                               ; preds = %31
  br i1 false, label %38, label %40

38:                                               ; preds = %37
  %39 = call zeroext i1 @errstart_cold(i32 noundef 15, ptr noundef null) #10
  br i1 %39, label %42, label %52

40:                                               ; preds = %37
  %41 = call zeroext i1 @errstart(i32 noundef 15, ptr noundef null)
  br i1 %41, label %42, label %52

42:                                               ; preds = %40, %38
  %43 = load ptr, ptr %3, align 8
  %44 = getelementptr inbounds nuw %struct.SnapshotData, ptr %43, i32 0, i32 4
  %45 = load i32, ptr %44, align 8
  %46 = zext i32 %45 to i64
  %47 = load ptr, ptr %4, align 8
  %48 = load ptr, ptr %3, align 8
  %49 = getelementptr inbounds nuw %struct.SnapshotData, ptr %48, i32 0, i32 4
  %50 = load i32, ptr %49, align 8
  %51 = call i32 (ptr, ptr, i64, ...) @errmsg_plural(ptr noundef @.str.11, ptr noundef @.str.12, i64 noundef %46, ptr noundef %47, i32 noundef %50)
  call void @errfinish(ptr noundef @.str.2, i32 noundef 571, ptr noundef @__func__.SnapBuildExportSnapshot)
  br label %52

52:                                               ; preds = %42, %40, %38
  br label %53

53:                                               ; preds = %52
  br label %54

54:                                               ; preds = %53
  %55 = load ptr, ptr %4, align 8
  call void @llvm.lifetime.end.p0(i64 8, ptr %4) #9
  call void @llvm.lifetime.end.p0(i64 8, ptr %3) #9
  ret ptr %55
}