; Function Attrs: nounwind uwtable
define dso_local ptr @SnapBuildExportSnapshot(ptr noundef readonly captures(none) %0) local_unnamed_addr #0 {
  %2 = tail call zeroext i1 @IsTransactionOrTransactionBlock() #14
  br i1 %2, label %3, label %6

3:                                                ; preds = %1
  %4 = tail call zeroext i1 @errstart_cold(i32 noundef 21, ptr noundef null) #15
  tail call void @llvm.assume(i1 %4)
  %5 = tail call i32 (ptr, ...) @errmsg_internal(ptr noundef nonnull @.str.9) #14
  tail call void @errfinish(ptr noundef nonnull @.str.2, i32 noundef 545, ptr noundef nonnull @__func__.SnapBuildExportSnapshot) #14
  unreachable

6:                                                ; preds = %1
  %7 = load ptr, ptr @SavedResourceOwnerDuringExport, align 8
  %.not = icmp eq ptr %7, null
  br i1 %.not, label %11, label %8

8:                                                ; preds = %6
  %9 = tail call zeroext i1 @errstart_cold(i32 noundef 21, ptr noundef null) #15
  tail call void @llvm.assume(i1 %9)
  %10 = tail call i32 (ptr, ...) @errmsg_internal(ptr noundef nonnull @.str.10) #14
  tail call void @errfinish(ptr noundef nonnull @.str.2, i32 noundef 548, ptr noundef nonnull @__func__.SnapBuildExportSnapshot) #14
  unreachable

11:                                               ; preds = %6
  %12 = load ptr, ptr @CurrentResourceOwner, align 8
  store ptr %12, ptr @SavedResourceOwnerDuringExport, align 8
  store i1 true, ptr @ExportInProgress, align 1
  tail call void @StartTransactionCommand() #14
  store i32 2, ptr @XactIsoLevel, align 4
  store i8 1, ptr @XactReadOnly, align 1
  %13 = tail call ptr @SnapBuildInitialSnapshot(ptr noundef %0)
  %14 = tail call ptr @ExportSnapshot(ptr noundef %13) #14
  %15 = tail call zeroext i1 @errstart(i32 noundef 15, ptr noundef null) #14
  br i1 %15, label %16, label %21

16:                                               ; preds = %11
  %17 = getelementptr inbounds nuw i8, ptr %13, i64 24
  %18 = load i32, ptr %17, align 8
  %19 = zext i32 %18 to i64
  %20 = tail call i32 (ptr, ptr, i64, ...) @errmsg_plural(ptr noundef nonnull @.str.11, ptr noundef nonnull @.str.12, i64 noundef %19, ptr noundef %14, i32 noundef %18) #14
  tail call void @errfinish(ptr noundef nonnull @.str.2, i32 noundef 571, ptr noundef nonnull @__func__.SnapBuildExportSnapshot) #14
  br label %21

21:                                               ; preds = %16, %11
  ret ptr %14
}